target datalayout = "e-m:e-p270:32:32-p271:32:32-p272:64:64-i64:64-i128:128-f80:128-n8:16:32:64-S128"
target triple = "x86_64-pc-linux-gnu"

%"struct.Minisat::Solver::WatcherDeleted" = type { ptr }
%"struct.Minisat::Solver::VarOrderLt" = type { ptr }
%"class.Minisat::Solver" = type <{ ptr, %"class.Minisat::vec", %"class.Minisat::LSet", i32, [4 x i8], double, double, double, double, i8, [3 x i8], i32, i32, i8, i8, [2 x i8], double, i32, i32, double, double, double, i32, [4 x i8], double, i64, i64, i64, i64, i64, i64, i64, i64, i64, i64, i64, i64, i64, %"class.Minisat::vec.2", %"class.Minisat::vec.2", %"class.Minisat::vec.1", %"class.Minisat::vec.3", %"class.Minisat::vec.1", %"class.Minisat::VMap", %"class.Minisat::VMap.7", %"class.Minisat::VMap.11", %"class.Minisat::VMap.7", %"class.Minisat::VMap.11", %"class.Minisat::VMap.15", %"class.Minisat::OccLists", %"class.Minisat::Heap", i8, [7 x i8], double, double, i32, i32, i64, double, i8, [3 x i8], i32, %"class.Minisat::ClauseAllocator", %"class.Minisat::vec.3", %"class.Minisat::vec.3", %"class.Minisat::VMap.11", %"class.Minisat::vec.25", %"class.Minisat::vec.1", %"class.Minisat::vec.1", double, double, i32, [4 x i8], i64, i64, i8, [7 x i8] }>
%"class.Minisat::vec" = type { ptr, i32, i32 }
%"class.Minisat::LSet" = type { %"class.Minisat::IntSet" }
%"class.Minisat::IntSet" = type { %"class.Minisat::IntMap", %"class.Minisat::vec.1" }
%"class.Minisat::IntMap" = type <{ %"class.Minisat::vec.0", %"struct.Minisat::MkIndexLit", [7 x i8] }>
%"class.Minisat::vec.0" = type { ptr, i32, i32 }
%"struct.Minisat::MkIndexLit" = type { i8 }
%"class.Minisat::vec.2" = type { ptr, i32, i32 }
%"class.Minisat::VMap" = type { %"class.Minisat::IntMap.base.6", [7 x i8] }
%"class.Minisat::IntMap.base.6" = type <{ %"class.Minisat::vec.5", %"struct.Minisat::MkIndexDefault" }>
%"class.Minisat::vec.5" = type { ptr, i32, i32 }
%"struct.Minisat::MkIndexDefault" = type { i8 }
%"class.Minisat::VMap.7" = type { %"class.Minisat::IntMap.base.9", [7 x i8] }
%"class.Minisat::IntMap.base.9" = type <{ %"class.Minisat::vec", %"struct.Minisat::MkIndexDefault" }>
%"class.Minisat::VMap.15" = type { %"class.Minisat::IntMap.base.18", [7 x i8] }
%"class.Minisat::IntMap.base.18" = type <{ %"class.Minisat::vec.17", %"struct.Minisat::MkIndexDefault" }>
%"class.Minisat::vec.17" = type { ptr, i32, i32 }
%"class.Minisat::OccLists" = type { %"class.Minisat::IntMap.20", %"class.Minisat::IntMap", %"class.Minisat::vec.1", %"struct.Minisat::Solver::WatcherDeleted" }
%"class.Minisat::IntMap.20" = type <{ %"class.Minisat::vec.21", %"struct.Minisat::MkIndexLit", [7 x i8] }>
%"class.Minisat::vec.21" = type { ptr, i32, i32 }
%"class.Minisat::Heap" = type { %"class.Minisat::vec.3", %"class.Minisat::IntMap.23", %"struct.Minisat::Solver::VarOrderLt" }
%"class.Minisat::IntMap.23" = type <{ %"class.Minisat::vec.3", %"struct.Minisat::MkIndexDefault", [7 x i8] }>
%"class.Minisat::ClauseAllocator" = type { %"class.Minisat::RegionAllocator", i8, [7 x i8] }
%"class.Minisat::RegionAllocator" = type <{ ptr, i32, i32, i32, [4 x i8] }>
%"class.Minisat::vec.3" = type { ptr, i32, i32 }
%"class.Minisat::VMap.11" = type { %"class.Minisat::IntMap.base.13", [7 x i8] }
%"class.Minisat::IntMap.base.13" = type <{ %"class.Minisat::vec.0", %"struct.Minisat::MkIndexDefault" }>
%"class.Minisat::vec.25" = type { ptr, i32, i32 }
%"class.Minisat::vec.1" = type { ptr, i32, i32 }
%struct.rusage = type { %struct.timeval, %struct.timeval, %union.anon.28, %union.anon.29, %union.anon.30, %union.anon.31, %union.anon.32, %union.anon.33, %union.anon.34, %union.anon.35, %union.anon.36, %union.anon.37, %union.anon.38, %union.anon.39, %union.anon.40, %union.anon.41 }
%struct.timeval = type { i64, i64 }
%union.anon.28 = type { i64 }
%union.anon.29 = type { i64 }
%union.anon.30 = type { i64 }
%union.anon.31 = type { i64 }
%union.anon.32 = type { i64 }
%union.anon.33 = type { i64 }
%union.anon.34 = type { i64 }
%union.anon.35 = type { i64 }
%union.anon.36 = type { i64 }
%union.anon.37 = type { i64 }
%union.anon.38 = type { i64 }
%union.anon.39 = type { i64 }
%union.anon.40 = type { i64 }
%union.anon.41 = type { i64 }

@.str.53 = private unnamed_addr constant [29 x i8] c"restarts              : %lu\0A\00", align 1
@.str.54 = private unnamed_addr constant [46 x i8] c"conflicts             : %-12lu   (%.0f /sec)\0A\00", align 1
@.str.55 = private unnamed_addr constant [64 x i8] c"decisions             : %-12lu   (%4.2f %% random) (%.0f /sec)\0A\00", align 1
@.str.56 = private unnamed_addr constant [46 x i8] c"propagations          : %-12lu   (%.0f /sec)\0A\00", align 1
@.str.57 = private unnamed_addr constant [53 x i8] c"conflict literals     : %-12lu   (%4.2f %% deleted)\0A\00", align 1
@.str.58 = private unnamed_addr constant [33 x i8] c"Memory used           : %.2f MB\0A\00", align 1
@.str.59 = private unnamed_addr constant [30 x i8] c"CPU time              : %g s\0A\00", align 1

; Function Attrs: mustprogress nounwind uwtable
define internal noundef double @_ZN7MinisatL7cpuTimeEv() #1 {
  %1 = alloca %struct.rusage, align 8
  %2 = call i32 @getrusage(i32 noundef 0, ptr noundef %1) #3
  %3 = getelementptr inbounds %struct.rusage, ptr %1, i32 0, i32 0
  %4 = getelementptr inbounds %struct.timeval, ptr %3, i32 0, i32 0
  %5 = load i64, ptr %4, align 8
  %6 = sitofp i64 %5 to double
  %7 = getelementptr inbounds %struct.rusage, ptr %1, i32 0, i32 0
  %8 = getelementptr inbounds %struct.timeval, ptr %7, i32 0, i32 1
  %9 = load i64, ptr %8, align 8
  %10 = sitofp i64 %9 to double
  %11 = fdiv double %10, 1.000000e+06
  %12 = fadd double %6, %11
  ret double %12
}

; Function Attrs: mustprogress uwtable
define void @_ZNK7Minisat6Solver10printStatsEv(ptr noundef nonnull align 8 dereferenceable(857) %0) #2 align 2 {
  %2 = alloca ptr, align 8
  %3 = alloca double, align 8
  %4 = alloca double, align 8
  store ptr %0, ptr %2, align 8
  %5 = load ptr, ptr %2, align 8
  %6 = call noundef double @_ZN7MinisatL7cpuTimeEv()
  store double %6, ptr %3, align 8
  %7 = call noundef double @_ZN7Minisat11memUsedPeakEb(i1 noundef zeroext false)
  store double %7, ptr %4, align 8
  %8 = getelementptr inbounds %"class.Minisat::Solver", ptr %5, i32 0, i32 26
  %9 = load i64, ptr %8, align 8
  %10 = call i32 (ptr, ...) @printf(ptr noundef @.str.53, i64 noundef %9)
  %11 = getelementptr inbounds %"class.Minisat::Solver", ptr %5, i32 0, i32 30
  %12 = load i64, ptr %11, align 8
  %13 = getelementptr inbounds %"class.Minisat::Solver", ptr %5, i32 0, i32 30
  %14 = load i64, ptr %13, align 8
  %15 = uitofp i64 %14 to double
  %16 = load double, ptr %3, align 8
  %17 = fdiv double %15, %16
  %18 = call i32 (ptr, ...) @printf(ptr noundef @.str.54, i64 noundef %12, double noundef %17)
  %19 = getelementptr inbounds %"class.Minisat::Solver", ptr %5, i32 0, i32 27
  %20 = load i64, ptr %19, align 8
  %21 = getelementptr inbounds %"class.Minisat::Solver", ptr %5, i32 0, i32 28
  %22 = load i64, ptr %21, align 8
  %23 = uitofp i64 %22 to float
  %24 = fmul float %23, 1.000000e+02
  %25 = getelementptr inbounds %"class.Minisat::Solver", ptr %5, i32 0, i32 27
  %26 = load i64, ptr %25, align 8
  %27 = uitofp i64 %26 to float
  %28 = fdiv float %24, %27
  %29 = fpext float %28 to double
  %30 = getelementptr inbounds %"class.Minisat::Solver", ptr %5, i32 0, i32 27
  %31 = load i64, ptr %30, align 8
  %32 = uitofp i64 %31 to double
  %33 = load double, ptr %3, align 8
  %34 = fdiv double %32, %33
  %35 = call i32 (ptr, ...) @printf(ptr noundef @.str.55, i64 noundef %20, double noundef %29, double noundef %34)
  %36 = getelementptr inbounds %"class.Minisat::Solver", ptr %5, i32 0, i32 29
  %37 = load i64, ptr %36, align 8
  %38 = getelementptr inbounds %"class.Minisat::Solver", ptr %5, i32 0, i32 29
  %39 = load i64, ptr %38, align 8
  %40 = uitofp i64 %39 to double
  %41 = load double, ptr %3, align 8
  %42 = fdiv double %40, %41
  %43 = call i32 (ptr, ...) @printf(ptr noundef @.str.56, i64 noundef %37, double noundef %42)
  %44 = getelementptr inbounds %"class.Minisat::Solver", ptr %5, i32 0, i32 37
  %45 = load i64, ptr %44, align 8
  %46 = getelementptr inbounds %"class.Minisat::Solver", ptr %5, i32 0, i32 36
  %47 = load i64, ptr %46, align 8
  %48 = getelementptr inbounds %"class.Minisat::Solver", ptr %5, i32 0, i32 37
  %49 = load i64, ptr %48, align 8
  %50 = sub i64 %47, %49
  %51 = mul i64 %50, 100
  %52 = uitofp i64 %51 to double
  %53 = getelementptr inbounds %"class.Minisat::Solver", ptr %5, i32 0, i32 36
  %54 = load i64, ptr %53, align 8
  %55 = uitofp i64 %54 to double
  %56 = fdiv double %52, %55
  %57 = call i32 (ptr, ...) @printf(ptr noundef @.str.57, i64 noundef %45, double noundef %56)
  %58 = load double, ptr %4, align 8
  %59 = fcmp une double %58, 0.000000e+00
  br i1 %59, label %60, label %63

60:                                               ; preds = %1
  %61 = load double, ptr %4, align 8
  %62 = call i32 (ptr, ...) @printf(ptr noundef @.str.58, double noundef %61)
  br label %63

63:                                               ; preds = %60, %1
  %64 = load double, ptr %3, align 8
  %65 = call i32 (ptr, ...) @printf(ptr noundef @.str.59, double noundef %64)
  ret void
}