; Function Attrs: mustprogress uwtable
define void @_ZNK7Minisat6Solver10printStatsEv(ptr nocapture noundef nonnull readonly align 8 dereferenceable(857) %0) local_unnamed_addr #2 align 2 {
  %2 = alloca %struct.rusage, align 8
  call void @llvm.lifetime.start.p0(i64 144, ptr nonnull %2)
  %3 = call i32 @getrusage(i32 noundef 0, ptr noundef nonnull %2) #25
  %4 = load i64, ptr %2, align 8
  %5 = sitofp i64 %4 to double
  %6 = getelementptr inbounds i8, ptr %2, i64 8
  %7 = load i64, ptr %6, align 8
  %8 = sitofp i64 %7 to double
  %9 = fdiv double %8, 1.000000e+06
  %10 = fadd double %9, %5
  call void @llvm.lifetime.end.p0(i64 144, ptr nonnull %2)
  %11 = call noundef double @_ZN7Minisat11memUsedPeakEb(i1 noundef zeroext false)
  %12 = getelementptr inbounds i8, ptr %0, i64 184
  %13 = load i64, ptr %12, align 8
  %14 = call i32 (ptr, ...) @printf(ptr noundef nonnull dereferenceable(1) @.str.53, i64 noundef %13)
  %15 = getelementptr inbounds i8, ptr %0, i64 216
  %16 = load i64, ptr %15, align 8
  %17 = uitofp i64 %16 to double
  %18 = fdiv double %17, %10
  %19 = call i32 (ptr, ...) @printf(ptr noundef nonnull dereferenceable(1) @.str.54, i64 noundef %16, double noundef %18)
  %20 = getelementptr inbounds i8, ptr %0, i64 192
  %21 = load i64, ptr %20, align 8
  %22 = getelementptr inbounds i8, ptr %0, i64 200
  %23 = load i64, ptr %22, align 8
  %24 = uitofp i64 %23 to float
  %25 = fmul float %24, 1.000000e+02
  %26 = uitofp i64 %21 to float
  %27 = fdiv float %25, %26
  %28 = fpext float %27 to double
  %29 = uitofp i64 %21 to double
  %30 = fdiv double %29, %10
  %31 = call i32 (ptr, ...) @printf(ptr noundef nonnull dereferenceable(1) @.str.55, i64 noundef %21, double noundef %28, double noundef %30)
  %32 = getelementptr inbounds i8, ptr %0, i64 208
  %33 = load i64, ptr %32, align 8
  %34 = uitofp i64 %33 to double
  %35 = fdiv double %34, %10
  %36 = call i32 (ptr, ...) @printf(ptr noundef nonnull dereferenceable(1) @.str.56, i64 noundef %33, double noundef %35)
  %37 = getelementptr inbounds i8, ptr %0, i64 272
  %38 = load i64, ptr %37, align 8
  %39 = getelementptr inbounds i8, ptr %0, i64 264
  %40 = load i64, ptr %39, align 8
  %41 = sub i64 %40, %38
  %42 = mul i64 %41, 100
  %43 = uitofp i64 %42 to double
  %44 = uitofp i64 %40 to double
  %45 = fdiv double %43, %44
  %46 = call i32 (ptr, ...) @printf(ptr noundef nonnull dereferenceable(1) @.str.57, i64 noundef %38, double noundef %45)
  %47 = fcmp une double %11, 0.000000e+00
  br i1 %47, label %48, label %50

48:                                               ; preds = %1
  %49 = call i32 (ptr, ...) @printf(ptr noundef nonnull dereferenceable(1) @.str.58, double noundef %11)
  br label %50

50:                                               ; preds = %48, %1
  %51 = call i32 (ptr, ...) @printf(ptr noundef nonnull dereferenceable(1) @.str.59, double noundef %10)
  ret void
}